target datalayout = "e-m:e-p270:32:32-p271:32:32-p272:64:64-i64:64-i128:128-f80:128-n8:16:32:64-S128"
target triple = "x86_64-pc-linux-gnu"

; Function Attrs: mustprogress nounwind uwtable
define linkonce_odr void @_ZN18duckdb_fastpforlib8internal9Unroller8ILt3ELt7EE6UnpackEPKhPh(ptr noalias noundef %0, ptr noalias noundef %1) #0 comdat align 2 {
  %3 = alloca ptr, align 8
  %4 = alloca ptr, align 8
  store ptr %0, ptr %3, align 8, !tbaa !3
  store ptr %1, ptr %4, align 8, !tbaa !3
  %5 = load ptr, ptr %3, align 8, !tbaa !3
  %6 = load i8, ptr %5, align 1, !tbaa !8
  %7 = zext i8 %6 to i32
  %8 = ashr i32 %7, 5
  %9 = trunc i32 %8 to i8
  %10 = load ptr, ptr %4, align 8, !tbaa !3
  %11 = getelementptr inbounds i8, ptr %10, i64 7
  store i8 %9, ptr %11, align 1, !tbaa !8
  ret void
}

; Function Attrs: mustprogress nounwind uwtable
define linkonce_odr void @_ZN18duckdb_fastpforlib8internal17unpack_single_outILh3ELh2EhLh8EEENSt9enable_ifIXltplT_T0_T2_EvE4typeEPKT1_PS5_(ptr noalias noundef %0, ptr noalias noundef %1) #0 comdat {
  %3 = alloca ptr, align 8
  %4 = alloca ptr, align 8
  store ptr %0, ptr %3, align 8, !tbaa !3
  store ptr %1, ptr %4, align 8, !tbaa !3
  %5 = load ptr, ptr %3, align 8, !tbaa !3
  %6 = load i8, ptr %5, align 1, !tbaa !8
  %7 = zext i8 %6 to i32
  %8 = ashr i32 %7, 2
  %9 = srem i32 %8, 8
  %10 = trunc i32 %9 to i8
  %11 = load ptr, ptr %4, align 8, !tbaa !3
  store i8 %10, ptr %11, align 1, !tbaa !8
  ret void
}

; Function Attrs: mustprogress uwtable
define linkonce_odr void @_ZN18duckdb_fastpforlib8internal9Unroller8ILt3ELt6EE6UnpackERrPKhPh(ptr noundef nonnull align 8 dereferenceable(8) %0, ptr noalias noundef %1) #2 comdat align 2 {
  %3 = alloca ptr, align 8
  %4 = alloca ptr, align 8
  store ptr %0, ptr %3, align 8, !tbaa !26
  store ptr %1, ptr %4, align 8, !tbaa !3
  %5 = load ptr, ptr %3, align 8, !tbaa !26
  %6 = load ptr, ptr %5, align 8, !tbaa !3
  %7 = load ptr, ptr %4, align 8, !tbaa !3
  %8 = getelementptr inbounds i8, ptr %7, i64 6
  call void @_ZN18duckdb_fastpforlib8internal17unpack_single_outILh3ELh2EhLh8EEENSt9enable_ifIXltplT_T0_T2_EvE4typeEPKT1_PS5_(ptr noundef %6, ptr noundef %8)
  %9 = load ptr, ptr %3, align 8, !tbaa !26
  %10 = load ptr, ptr %9, align 8, !tbaa !3
  %11 = load ptr, ptr %4, align 8, !tbaa !3
  call void @_ZN18duckdb_fastpforlib8internal9Unroller8ILt3ELt7EE6UnpackEPKhPh(ptr noundef %10, ptr noundef %11)
  ret void
}

; Function Attrs: mustprogress nounwind uwtable
define linkonce_odr void @_ZN18duckdb_fastpforlib8internal17unpack_single_outILh3ELh7EhLh8EEENSt9enable_ifIXgeplT_T0_T2_EvE4typeERrPKT1_PS5_(ptr noundef nonnull align 8 dereferenceable(8) %0, ptr noalias noundef %1) #0 comdat {
  %3 = alloca ptr, align 8
  %4 = alloca ptr, align 8
  store ptr %0, ptr %3, align 8, !tbaa !26
  store ptr %1, ptr %4, align 8, !tbaa !3
  %5 = load ptr, ptr %3, align 8, !tbaa !26
  %6 = load ptr, ptr %5, align 8, !tbaa !3
  %7 = load i8, ptr %6, align 1, !tbaa !8
  %8 = zext i8 %7 to i32
  %9 = ashr i32 %8, 7
  %10 = trunc i32 %9 to i8
  %11 = load ptr, ptr %4, align 8, !tbaa !3
  store i8 %10, ptr %11, align 1, !tbaa !8
  %12 = load ptr, ptr %3, align 8, !tbaa !26
  %13 = load ptr, ptr %12, align 8, !tbaa !3
  %14 = getelementptr inbounds nuw i8, ptr %13, i32 1
  store ptr %14, ptr %12, align 8, !tbaa !3
  %15 = load ptr, ptr %3, align 8, !tbaa !26
  %16 = load ptr, ptr %15, align 8, !tbaa !3
  %17 = load i8, ptr %16, align 1, !tbaa !8
  %18 = zext i8 %17 to i32
  %19 = urem i32 %18, 4
  %20 = shl i32 %19, 1
  %21 = load ptr, ptr %4, align 8, !tbaa !3
  %22 = load i8, ptr %21, align 1, !tbaa !8
  %23 = zext i8 %22 to i32
  %24 = or i32 %23, %20
  %25 = trunc i32 %24 to i8
  store i8 %25, ptr %21, align 1, !tbaa !8
  ret void
}

; Function Attrs: mustprogress uwtable
define linkonce_odr void @_ZN18duckdb_fastpforlib8internal9Unroller8ILt3ELt5EE6UnpackERrPKhPh(ptr noundef nonnull align 8 dereferenceable(8) %0, ptr noalias noundef %1) #2 comdat align 2 {
  %3 = alloca ptr, align 8
  %4 = alloca ptr, align 8
  store ptr %0, ptr %3, align 8, !tbaa !26
  store ptr %1, ptr %4, align 8, !tbaa !3
  %5 = load ptr, ptr %3, align 8, !tbaa !26
  %6 = load ptr, ptr %4, align 8, !tbaa !3
  %7 = getelementptr inbounds i8, ptr %6, i64 5
  call void @_ZN18duckdb_fastpforlib8internal17unpack_single_outILh3ELh7EhLh8EEENSt9enable_ifIXgeplT_T0_T2_EvE4typeERrPKT1_PS5_(ptr noundef nonnull align 8 dereferenceable(8) %5, ptr noundef %7)
  %8 = load ptr, ptr %3, align 8, !tbaa !26
  %9 = load ptr, ptr %4, align 8, !tbaa !3
  call void @_ZN18duckdb_fastpforlib8internal9Unroller8ILt3ELt6EE6UnpackERrPKhPh(ptr noundef nonnull align 8 dereferenceable(8) %8, ptr noundef %9)
  ret void
}

; Function Attrs: mustprogress nounwind uwtable
define linkonce_odr void @_ZN18duckdb_fastpforlib8internal17unpack_single_outILh3ELh4EhLh8EEENSt9enable_ifIXltplT_T0_T2_EvE4typeEPKT1_PS5_(ptr noalias noundef %0, ptr noalias noundef %1) #0 comdat {
  %3 = alloca ptr, align 8
  %4 = alloca ptr, align 8
  store ptr %0, ptr %3, align 8, !tbaa !3
  store ptr %1, ptr %4, align 8, !tbaa !3
  %5 = load ptr, ptr %3, align 8, !tbaa !3
  %6 = load i8, ptr %5, align 1, !tbaa !8
  %7 = zext i8 %6 to i32
  %8 = ashr i32 %7, 4
  %9 = srem i32 %8, 8
  %10 = trunc i32 %9 to i8
  %11 = load ptr, ptr %4, align 8, !tbaa !3
  store i8 %10, ptr %11, align 1, !tbaa !8
  ret void
}

; Function Attrs: mustprogress uwtable
define linkonce_odr void @_ZN18duckdb_fastpforlib8internal9Unroller8ILt3ELt4EE6UnpackERrPKhPh(ptr noundef nonnull align 8 dereferenceable(8) %0, ptr noalias noundef %1) #2 comdat align 2 {
  %3 = alloca ptr, align 8
  %4 = alloca ptr, align 8
  store ptr %0, ptr %3, align 8, !tbaa !26
  store ptr %1, ptr %4, align 8, !tbaa !3
  %5 = load ptr, ptr %3, align 8, !tbaa !26
  %6 = load ptr, ptr %5, align 8, !tbaa !3
  %7 = load ptr, ptr %4, align 8, !tbaa !3
  %8 = getelementptr inbounds i8, ptr %7, i64 4
  call void @_ZN18duckdb_fastpforlib8internal17unpack_single_outILh3ELh4EhLh8EEENSt9enable_ifIXltplT_T0_T2_EvE4typeEPKT1_PS5_(ptr noundef %6, ptr noundef %8)
  %9 = load ptr, ptr %3, align 8, !tbaa !26
  %10 = load ptr, ptr %4, align 8, !tbaa !3
  call void @_ZN18duckdb_fastpforlib8internal9Unroller8ILt3ELt5EE6UnpackERrPKhPh(ptr noundef nonnull align 8 dereferenceable(8) %9, ptr noundef %10)
  ret void
}

; Function Attrs: mustprogress nounwind uwtable
define linkonce_odr void @_ZN18duckdb_fastpforlib8internal17unpack_single_outILh3ELh1EhLh8EEENSt9enable_ifIXltplT_T0_T2_EvE4typeEPKT1_PS5_(ptr noalias noundef %0, ptr noalias noundef %1) #0 comdat {
  %3 = alloca ptr, align 8
  %4 = alloca ptr, align 8
  store ptr %0, ptr %3, align 8, !tbaa !3
  store ptr %1, ptr %4, align 8, !tbaa !3
  %5 = load ptr, ptr %3, align 8, !tbaa !3
  %6 = load i8, ptr %5, align 1, !tbaa !8
  %7 = zext i8 %6 to i32
  %8 = ashr i32 %7, 1
  %9 = srem i32 %8, 8
  %10 = trunc i32 %9 to i8
  %11 = load ptr, ptr %4, align 8, !tbaa !3
  store i8 %10, ptr %11, align 1, !tbaa !8
  ret void
}

; Function Attrs: mustprogress uwtable
define linkonce_odr void @_ZN18duckdb_fastpforlib8internal9Unroller8ILt3ELt3EE6UnpackERrPKhPh(ptr noundef nonnull align 8 dereferenceable(8) %0, ptr noalias noundef %1) #2 comdat align 2 {
  %3 = alloca ptr, align 8
  %4 = alloca ptr, align 8
  store ptr %0, ptr %3, align 8, !tbaa !26
  store ptr %1, ptr %4, align 8, !tbaa !3
  %5 = load ptr, ptr %3, align 8, !tbaa !26
  %6 = load ptr, ptr %5, align 8, !tbaa !3
  %7 = load ptr, ptr %4, align 8, !tbaa !3
  %8 = getelementptr inbounds i8, ptr %7, i64 3
  call void @_ZN18duckdb_fastpforlib8internal17unpack_single_outILh3ELh1EhLh8EEENSt9enable_ifIXltplT_T0_T2_EvE4typeEPKT1_PS5_(ptr noundef %6, ptr noundef %8)
  %9 = load ptr, ptr %3, align 8, !tbaa !26
  %10 = load ptr, ptr %4, align 8, !tbaa !3
  call void @_ZN18duckdb_fastpforlib8internal9Unroller8ILt3ELt4EE6UnpackERrPKhPh(ptr noundef nonnull align 8 dereferenceable(8) %9, ptr noundef %10)
  ret void
}

; Function Attrs: mustprogress nounwind uwtable
define linkonce_odr void @_ZN18duckdb_fastpforlib8internal17unpack_single_outILh3ELh6EhLh8EEENSt9enable_ifIXgeplT_T0_T2_EvE4typeERrPKT1_PS5_(ptr noundef nonnull align 8 dereferenceable(8) %0, ptr noalias noundef %1) #0 comdat {
  %3 = alloca ptr, align 8
  %4 = alloca ptr, align 8
  store ptr %0, ptr %3, align 8, !tbaa !26
  store ptr %1, ptr %4, align 8, !tbaa !3
  %5 = load ptr, ptr %3, align 8, !tbaa !26
  %6 = load ptr, ptr %5, align 8, !tbaa !3
  %7 = load i8, ptr %6, align 1, !tbaa !8
  %8 = zext i8 %7 to i32
  %9 = ashr i32 %8, 6
  %10 = trunc i32 %9 to i8
  %11 = load ptr, ptr %4, align 8, !tbaa !3
  store i8 %10, ptr %11, align 1, !tbaa !8
  %12 = load ptr, ptr %3, align 8, !tbaa !26
  %13 = load ptr, ptr %12, align 8, !tbaa !3
  %14 = getelementptr inbounds nuw i8, ptr %13, i32 1
  store ptr %14, ptr %12, align 8, !tbaa !3
  %15 = load ptr, ptr %3, align 8, !tbaa !26
  %16 = load ptr, ptr %15, align 8, !tbaa !3
  %17 = load i8, ptr %16, align 1, !tbaa !8
  %18 = zext i8 %17 to i32
  %19 = urem i32 %18, 2
  %20 = shl i32 %19, 2
  %21 = load ptr, ptr %4, align 8, !tbaa !3
  %22 = load i8, ptr %21, align 1, !tbaa !8
  %23 = zext i8 %22 to i32
  %24 = or i32 %23, %20
  %25 = trunc i32 %24 to i8
  store i8 %25, ptr %21, align 1, !tbaa !8
  ret void
}

; Function Attrs: mustprogress uwtable
define linkonce_odr void @_ZN18duckdb_fastpforlib8internal9Unroller8ILt3ELt2EE6UnpackERrPKhPh(ptr noundef nonnull align 8 dereferenceable(8) %0, ptr noalias noundef %1) #2 comdat align 2 {
  %3 = alloca ptr, align 8
  %4 = alloca ptr, align 8
  store ptr %0, ptr %3, align 8, !tbaa !26
  store ptr %1, ptr %4, align 8, !tbaa !3
  %5 = load ptr, ptr %3, align 8, !tbaa !26
  %6 = load ptr, ptr %4, align 8, !tbaa !3
  %7 = getelementptr inbounds i8, ptr %6, i64 2
  call void @_ZN18duckdb_fastpforlib8internal17unpack_single_outILh3ELh6EhLh8EEENSt9enable_ifIXgeplT_T0_T2_EvE4typeERrPKT1_PS5_(ptr noundef nonnull align 8 dereferenceable(8) %5, ptr noundef %7)
  %8 = load ptr, ptr %3, align 8, !tbaa !26
  %9 = load ptr, ptr %4, align 8, !tbaa !3
  call void @_ZN18duckdb_fastpforlib8internal9Unroller8ILt3ELt3EE6UnpackERrPKhPh(ptr noundef nonnull align 8 dereferenceable(8) %8, ptr noundef %9)
  ret void
}

; Function Attrs: mustprogress nounwind uwtable
define linkonce_odr void @_ZN18duckdb_fastpforlib8internal17unpack_single_outILh3ELh3EhLh8EEENSt9enable_ifIXltplT_T0_T2_EvE4typeEPKT1_PS5_(ptr noalias noundef %0, ptr noalias noundef %1) #0 comdat {
  %3 = alloca ptr, align 8
  %4 = alloca ptr, align 8
  store ptr %0, ptr %3, align 8, !tbaa !3
  store ptr %1, ptr %4, align 8, !tbaa !3
  %5 = load ptr, ptr %3, align 8, !tbaa !3
  %6 = load i8, ptr %5, align 1, !tbaa !8
  %7 = zext i8 %6 to i32
  %8 = ashr i32 %7, 3
  %9 = srem i32 %8, 8
  %10 = trunc i32 %9 to i8
  %11 = load ptr, ptr %4, align 8, !tbaa !3
  store i8 %10, ptr %11, align 1, !tbaa !8
  ret void
}

; Function Attrs: mustprogress uwtable
define linkonce_odr void @_ZN18duckdb_fastpforlib8internal9Unroller8ILt3ELt1EE6UnpackERrPKhPh(ptr noundef nonnull align 8 dereferenceable(8) %0, ptr noalias noundef %1) #2 comdat align 2 {
  %3 = alloca ptr, align 8
  %4 = alloca ptr, align 8
  store ptr %0, ptr %3, align 8, !tbaa !26
  store ptr %1, ptr %4, align 8, !tbaa !3
  %5 = load ptr, ptr %3, align 8, !tbaa !26
  %6 = load ptr, ptr %5, align 8, !tbaa !3
  %7 = load ptr, ptr %4, align 8, !tbaa !3
  %8 = getelementptr inbounds i8, ptr %7, i64 1
  call void @_ZN18duckdb_fastpforlib8internal17unpack_single_outILh3ELh3EhLh8EEENSt9enable_ifIXltplT_T0_T2_EvE4typeEPKT1_PS5_(ptr noundef %6, ptr noundef %8)
  %9 = load ptr, ptr %3, align 8, !tbaa !26
  %10 = load ptr, ptr %4, align 8, !tbaa !3
  call void @_ZN18duckdb_fastpforlib8internal9Unroller8ILt3ELt2EE6UnpackERrPKhPh(ptr noundef nonnull align 8 dereferenceable(8) %9, ptr noundef %10)
  ret void
}

; Function Attrs: mustprogress nounwind uwtable
define linkonce_odr void @_ZN18duckdb_fastpforlib8internal17unpack_single_outILh3ELh0EhLh8EEENSt9enable_ifIXltplT_T0_T2_EvE4typeEPKT1_PS5_(ptr noalias noundef %0, ptr noalias noundef %1) #0 comdat {
  %3 = alloca ptr, align 8
  %4 = alloca ptr, align 8
  store ptr %0, ptr %3, align 8, !tbaa !3
  store ptr %1, ptr %4, align 8, !tbaa !3
  %5 = load ptr, ptr %3, align 8, !tbaa !3
  %6 = load i8, ptr %5, align 1, !tbaa !8
  %7 = zext i8 %6 to i32
  %8 = ashr i32 %7, 0
  %9 = srem i32 %8, 8
  %10 = trunc i32 %9 to i8
  %11 = load ptr, ptr %4, align 8, !tbaa !3
  store i8 %10, ptr %11, align 1, !tbaa !8
  ret void
}

; Function Attrs: mustprogress uwtable
define linkonce_odr void @_ZN18duckdb_fastpforlib8internal9Unroller8ILt3ELt0EE6UnpackERrPKhPh(ptr noundef nonnull align 8 dereferenceable(8) %0, ptr noalias noundef %1) #2 comdat align 2 {
  %3 = alloca ptr, align 8
  %4 = alloca ptr, align 8
  store ptr %0, ptr %3, align 8, !tbaa !26
  store ptr %1, ptr %4, align 8, !tbaa !3
  %5 = load ptr, ptr %3, align 8, !tbaa !26
  %6 = load ptr, ptr %5, align 8, !tbaa !3
  %7 = load ptr, ptr %4, align 8, !tbaa !3
  %8 = getelementptr inbounds i8, ptr %7, i64 0
  call void @_ZN18duckdb_fastpforlib8internal17unpack_single_outILh3ELh0EhLh8EEENSt9enable_ifIXltplT_T0_T2_EvE4typeEPKT1_PS5_(ptr noundef %6, ptr noundef %8)
  %9 = load ptr, ptr %3, align 8, !tbaa !26
  %10 = load ptr, ptr %4, align 8, !tbaa !3
  call void @_ZN18duckdb_fastpforlib8internal9Unroller8ILt3ELt1EE6UnpackERrPKhPh(ptr noundef nonnull align 8 dereferenceable(8) %9, ptr noundef %10)
  ret void
}

; Function Attrs: mustprogress uwtable
define void @_ZN18duckdb_fastpforlib8internal13__fastunpack3EPKhPh(ptr noalias noundef %0, ptr noalias noundef %1) #2 {
  %3 = alloca ptr, align 8
  %4 = alloca ptr, align 8
  store ptr %0, ptr %3, align 8, !tbaa !3
  store ptr %1, ptr %4, align 8, !tbaa !3
  %5 = load ptr, ptr %4, align 8, !tbaa !3
  call void @_ZN18duckdb_fastpforlib8internal9Unroller8ILt3ELt0EE6UnpackERrPKhPh(ptr noundef nonnull align 8 dereferenceable(8) %3, ptr noundef %5)
  ret void
}