; Function Attrs: mustprogress nofree norecurse nosync nounwind willreturn memory(argmem: readwrite, inaccessiblemem: readwrite) uwtable
define void @_ZN18duckdb_fastpforlib8internal13__fastunpack3EPKhPh(ptr noalias noundef readonly captures(none) %0, ptr noalias noundef writeonly captures(none) initializes((0, 8)) %1) local_unnamed_addr #2 {
  tail call void @llvm.experimental.noalias.scope.decl(metadata !127)
  tail call void @llvm.experimental.noalias.scope.decl(metadata !130)
  tail call void @llvm.experimental.noalias.scope.decl(metadata !133)
  %3 = load i8, ptr %0, align 1, !tbaa !19, !alias.scope !130, !noalias !135
  %4 = and i8 %3, 7
  store i8 %4, ptr %1, align 1, !tbaa !19, !alias.scope !135, !noalias !130
  tail call void @llvm.experimental.noalias.scope.decl(metadata !136)
  %5 = getelementptr inbounds nuw i8, ptr %1, i64 1
  %6 = lshr i8 %3, 3
  %7 = and i8 %6, 7
  store i8 %7, ptr %5, align 1, !tbaa !19, !alias.scope !139, !noalias !142
  tail call void @llvm.experimental.noalias.scope.decl(metadata !144)
  %8 = getelementptr inbounds nuw i8, ptr %1, i64 2
  tail call void @llvm.experimental.noalias.scope.decl(metadata !147)
  %9 = lshr i8 %3, 6
  %10 = getelementptr inbounds nuw i8, ptr %0, i64 1
  %11 = load i8, ptr %10, align 1, !tbaa !19, !noalias !150
  %12 = shl i8 %11, 2
  %13 = and i8 %12, 4
  %14 = or disjoint i8 %13, %9
  store i8 %14, ptr %8, align 1, !tbaa !19, !alias.scope !150
  tail call void @llvm.experimental.noalias.scope.decl(metadata !151)
  %15 = getelementptr inbounds nuw i8, ptr %1, i64 3
  %16 = lshr i8 %11, 1
  %17 = and i8 %16, 7
  store i8 %17, ptr %15, align 1, !tbaa !19, !alias.scope !154, !noalias !157
  tail call void @llvm.experimental.noalias.scope.decl(metadata !159)
  %18 = getelementptr inbounds nuw i8, ptr %1, i64 4
  %19 = lshr i8 %11, 4
  %20 = and i8 %19, 7
  store i8 %20, ptr %18, align 1, !tbaa !19, !alias.scope !162, !noalias !165
  tail call void @llvm.experimental.noalias.scope.decl(metadata !167)
  %21 = getelementptr inbounds nuw i8, ptr %1, i64 5
  tail call void @llvm.experimental.noalias.scope.decl(metadata !170)
  %22 = lshr i8 %11, 7
  %23 = getelementptr inbounds nuw i8, ptr %0, i64 2
  %24 = load i8, ptr %23, align 1, !tbaa !19, !noalias !173
  %25 = shl i8 %24, 1
  %26 = and i8 %25, 6
  %27 = or disjoint i8 %26, %22
  store i8 %27, ptr %21, align 1, !tbaa !19, !alias.scope !173
  %28 = getelementptr inbounds nuw i8, ptr %1, i64 6
  %29 = lshr i8 %24, 2
  %30 = and i8 %29, 7
  store i8 %30, ptr %28, align 1, !tbaa !19, !alias.scope !174, !noalias !179
  %31 = lshr i8 %24, 5
  %32 = getelementptr inbounds nuw i8, ptr %1, i64 7
  store i8 %31, ptr %32, align 1, !tbaa !19, !alias.scope !181, !noalias !184
  ret void
}